target datalayout = "e-m:e-p270:32:32-p271:32:32-p272:64:64-i64:64-i128:128-f80:128-n8:16:32:64-S128"
target triple = "x86_64-pc-linux-gnu"

%struct.evp_cipher_ctx_st = type { ptr, ptr, i32, i32, [16 x i8], [16 x i8], [32 x i8], i32, ptr, i32, i32, i64, ptr, i32, i32, [32 x i8], i64, ptr, ptr }
%struct.evp_cipher_st = type { i32, i32, i32, i32, i64, i32, ptr, ptr, ptr, i32, ptr, ptr, ptr, ptr, i32, ptr, ptr, ptr, %struct.CRYPTO_REF_COUNT, ptr, ptr, ptr, ptr, ptr, ptr, ptr, ptr, ptr, ptr, ptr, ptr, ptr, ptr, ptr, ptr, ptr, ptr, ptr, ptr }
%struct.CRYPTO_REF_COUNT = type { i32 }

@.str = private unnamed_addr constant [32 x i8] c"../openssl/crypto/evp/evp_enc.c\00", align 1
@__func__.EVP_EncryptFinal_ex = private unnamed_addr constant [20 x i8] c"EVP_EncryptFinal_ex\00", align 1
@.str.1 = private unnamed_addr constant [40 x i8] c"assertion failed: b <= sizeof(ctx->buf)\00", align 1

; Function Attrs: nounwind uwtable
define i32 @EVP_EncryptFinal_ex(ptr noundef %0, ptr noundef %1, ptr noundef %2) #0 {
  %4 = alloca i32, align 4
  %5 = alloca ptr, align 8
  %6 = alloca ptr, align 8
  %7 = alloca ptr, align 8
  %8 = alloca i32, align 4
  %9 = alloca i32, align 4
  %10 = alloca i32, align 4
  %11 = alloca i32, align 4
  %12 = alloca i32, align 4
  %13 = alloca i64, align 8
  %14 = alloca i32, align 4
  %15 = alloca i32, align 4
  store ptr %0, ptr %5, align 8, !tbaa !3
  store ptr %1, ptr %6, align 8, !tbaa !32
  store ptr %2, ptr %7, align 8, !tbaa !66
  call void @llvm.lifetime.start.p0(i64 4, ptr %8) #9
  call void @llvm.lifetime.start.p0(i64 4, ptr %9) #9
  call void @llvm.lifetime.start.p0(i64 4, ptr %10) #9
  call void @llvm.lifetime.start.p0(i64 4, ptr %11) #9
  call void @llvm.lifetime.start.p0(i64 4, ptr %12) #9
  call void @llvm.lifetime.start.p0(i64 8, ptr %13) #9
  call void @llvm.lifetime.start.p0(i64 4, ptr %14) #9
  %16 = load ptr, ptr %7, align 8, !tbaa !66
  %17 = icmp ne ptr %16, null
  br i1 %17, label %18, label %20

18:                                               ; preds = %3
  %19 = load ptr, ptr %7, align 8, !tbaa !66
  store i32 0, ptr %19, align 4, !tbaa !29
  br label %21

20:                                               ; preds = %3
  call void @ERR_new()
  call void @ERR_set_debug(ptr noundef @.str, i32 noundef 1042, ptr noundef @__func__.EVP_EncryptFinal_ex)
  call void (i32, i32, ptr, ...) @ERR_set_error(i32 noundef 6, i32 noundef 786690, ptr noundef null)
  store i32 0, ptr %4, align 4
  store i32 1, ptr %15, align 4
  br label %182

21:                                               ; preds = %18
  %22 = load ptr, ptr %5, align 8, !tbaa !3
  %23 = getelementptr inbounds nuw %struct.evp_cipher_ctx_st, ptr %22, i32 0, i32 2
  %24 = load i32, ptr %23, align 8, !tbaa !36
  %25 = icmp ne i32 %24, 0
  br i1 %25, label %27, label %26

26:                                               ; preds = %21
  call void @ERR_new()
  call void @ERR_set_debug(ptr noundef @.str, i32 noundef 1048, ptr noundef @__func__.EVP_EncryptFinal_ex)
  call void (i32, i32, ptr, ...) @ERR_set_error(i32 noundef 6, i32 noundef 148, ptr noundef null)
  store i32 0, ptr %4, align 4
  store i32 1, ptr %15, align 4
  br label %182

27:                                               ; preds = %21
  %28 = load ptr, ptr %5, align 8, !tbaa !3
  %29 = getelementptr inbounds nuw %struct.evp_cipher_ctx_st, ptr %28, i32 0, i32 0
  %30 = load ptr, ptr %29, align 8, !tbaa !8
  %31 = icmp eq ptr %30, null
  br i1 %31, label %32, label %33

32:                                               ; preds = %27
  call void @ERR_new()
  call void @ERR_set_debug(ptr noundef @.str, i32 noundef 1053, ptr noundef @__func__.EVP_EncryptFinal_ex)
  call void (i32, i32, ptr, ...) @ERR_set_error(i32 noundef 6, i32 noundef 131, ptr noundef null)
  store i32 0, ptr %4, align 4
  store i32 1, ptr %15, align 4
  br label %182

33:                                               ; preds = %27
  %34 = load ptr, ptr %5, align 8, !tbaa !3
  %35 = getelementptr inbounds nuw %struct.evp_cipher_ctx_st, ptr %34, i32 0, i32 0
  %36 = load ptr, ptr %35, align 8, !tbaa !8
  %37 = getelementptr inbounds nuw %struct.evp_cipher_st, ptr %36, i32 0, i32 17
  %38 = load ptr, ptr %37, align 8, !tbaa !14
  %39 = icmp eq ptr %38, null
  br i1 %39, label %40, label %41

40:                                               ; preds = %33
  br label %85

41:                                               ; preds = %33
  %42 = load ptr, ptr %5, align 8, !tbaa !3
  %43 = call i32 @EVP_CIPHER_CTX_get_block_size(ptr noundef %42)
  store i32 %43, ptr %14, align 4, !tbaa !29
  %44 = load i32, ptr %14, align 4, !tbaa !29
  %45 = icmp slt i32 %44, 1
  br i1 %45, label %53, label %46

46:                                               ; preds = %41
  %47 = load ptr, ptr %5, align 8, !tbaa !3
  %48 = getelementptr inbounds nuw %struct.evp_cipher_ctx_st, ptr %47, i32 0, i32 0
  %49 = load ptr, ptr %48, align 8, !tbaa !8
  %50 = getelementptr inbounds nuw %struct.evp_cipher_st, ptr %49, i32 0, i32 23
  %51 = load ptr, ptr %50, align 8, !tbaa !75
  %52 = icmp eq ptr %51, null
  br i1 %52, label %53, label %54

53:                                               ; preds = %46, %41
  call void @ERR_new()
  call void @ERR_set_debug(ptr noundef @.str, i32 noundef 1062, ptr noundef @__func__.EVP_EncryptFinal_ex)
  call void (i32, i32, ptr, ...) @ERR_set_error(i32 noundef 6, i32 noundef 188, ptr noundef null)
  store i32 0, ptr %4, align 4
  store i32 1, ptr %15, align 4
  br label %182

54:                                               ; preds = %46
  %55 = load ptr, ptr %5, align 8, !tbaa !3
  %56 = getelementptr inbounds nuw %struct.evp_cipher_ctx_st, ptr %55, i32 0, i32 0
  %57 = load ptr, ptr %56, align 8, !tbaa !8
  %58 = getelementptr inbounds nuw %struct.evp_cipher_st, ptr %57, i32 0, i32 23
  %59 = load ptr, ptr %58, align 8, !tbaa !75
  %60 = load ptr, ptr %5, align 8, !tbaa !3
  %61 = getelementptr inbounds nuw %struct.evp_cipher_ctx_st, ptr %60, i32 0, i32 17
  %62 = load ptr, ptr %61, align 8, !tbaa !19
  %63 = load ptr, ptr %6, align 8, !tbaa !32
  %64 = load i32, ptr %14, align 4, !tbaa !29
  %65 = icmp eq i32 %64, 1
  br i1 %65, label %66, label %67

66:                                               ; preds = %54
  br label %69

67:                                               ; preds = %54
  %68 = load i32, ptr %14, align 4, !tbaa !29
  br label %69

69:                                               ; preds = %67, %66
  %70 = phi i32 [ 0, %66 ], [ %68, %67 ]
  %71 = sext i32 %70 to i64
  %72 = call i32 %59(ptr noundef %62, ptr noundef %63, ptr noundef %13, i64 noundef %71)
  store i32 %72, ptr %9, align 4, !tbaa !29
  %73 = load i32, ptr %9, align 4, !tbaa !29
  %74 = icmp ne i32 %73, 0
  br i1 %74, label %75, label %83

75:                                               ; preds = %69
  %76 = load i64, ptr %13, align 8, !tbaa !33
  %77 = icmp ugt i64 %76, 2147483647
  br i1 %77, label %78, label %79

78:                                               ; preds = %75
  call void @ERR_new()
  call void @ERR_set_debug(ptr noundef @.str, i32 noundef 1071, ptr noundef @__func__.EVP_EncryptFinal_ex)
  call void (i32, i32, ptr, ...) @ERR_set_error(i32 noundef 6, i32 noundef 188, ptr noundef null)
  store i32 0, ptr %4, align 4
  store i32 1, ptr %15, align 4
  br label %182

79:                                               ; preds = %75
  %80 = load i64, ptr %13, align 8, !tbaa !33
  %81 = trunc i64 %80 to i32
  %82 = load ptr, ptr %7, align 8, !tbaa !66
  store i32 %81, ptr %82, align 4, !tbaa !29
  br label %83

83:                                               ; preds = %79, %69
  %84 = load i32, ptr %9, align 4, !tbaa !29
  store i32 %84, ptr %4, align 4
  store i32 1, ptr %15, align 4
  br label %182

85:                                               ; preds = %40
  %86 = load ptr, ptr %5, align 8, !tbaa !3
  %87 = getelementptr inbounds nuw %struct.evp_cipher_ctx_st, ptr %86, i32 0, i32 0
  %88 = load ptr, ptr %87, align 8, !tbaa !8
  %89 = getelementptr inbounds nuw %struct.evp_cipher_st, ptr %88, i32 0, i32 4
  %90 = load i64, ptr %89, align 8, !tbaa !54
  %91 = and i64 %90, 1048576
  %92 = icmp ne i64 %91, 0
  br i1 %92, label %93, label %109

93:                                               ; preds = %85
  %94 = load ptr, ptr %5, align 8, !tbaa !3
  %95 = getelementptr inbounds nuw %struct.evp_cipher_ctx_st, ptr %94, i32 0, i32 0
  %96 = load ptr, ptr %95, align 8, !tbaa !8
  %97 = getelementptr inbounds nuw %struct.evp_cipher_st, ptr %96, i32 0, i32 7
  %98 = load ptr, ptr %97, align 8, !tbaa !69
  %99 = load ptr, ptr %5, align 8, !tbaa !3
  %100 = load ptr, ptr %6, align 8, !tbaa !32
  %101 = call i32 %98(ptr noundef %99, ptr noundef %100, ptr noundef null, i64 noundef 0)
  store i32 %101, ptr %9, align 4, !tbaa !29
  %102 = load i32, ptr %9, align 4, !tbaa !29
  %103 = icmp slt i32 %102, 0
  br i1 %103, label %104, label %105

104:                                              ; preds = %93
  store i32 0, ptr %4, align 4
  store i32 1, ptr %15, align 4
  br label %182

105:                                              ; preds = %93
  %106 = load i32, ptr %9, align 4, !tbaa !29
  %107 = load ptr, ptr %7, align 8, !tbaa !66
  store i32 %106, ptr %107, align 4, !tbaa !29
  br label %108

108:                                              ; preds = %105
  store i32 1, ptr %4, align 4
  store i32 1, ptr %15, align 4
  br label %182

109:                                              ; preds = %85
  %110 = load ptr, ptr %5, align 8, !tbaa !3
  %111 = getelementptr inbounds nuw %struct.evp_cipher_ctx_st, ptr %110, i32 0, i32 0
  %112 = load ptr, ptr %111, align 8, !tbaa !8
  %113 = getelementptr inbounds nuw %struct.evp_cipher_st, ptr %112, i32 0, i32 1
  %114 = load i32, ptr %113, align 4, !tbaa !55
  store i32 %114, ptr %11, align 4, !tbaa !29
  %115 = load i32, ptr %11, align 4, !tbaa !29
  %116 = zext i32 %115 to i64
  %117 = icmp ule i64 %116, 32
  br i1 %117, label %118, label %119

118:                                              ; preds = %109
  br label %121

119:                                              ; preds = %109
  call void @OPENSSL_die(ptr noundef @.str.1, ptr noundef @.str, i32 noundef 1092) #10
  unreachable

120:                                              ; No predecessors!
  br label %121

121:                                              ; preds = %120, %118
  %122 = load i32, ptr %11, align 4, !tbaa !29
  %123 = icmp eq i32 %122, 1
  br i1 %123, label %124, label %126

124:                                              ; preds = %121
  %125 = load ptr, ptr %7, align 8, !tbaa !66
  store i32 0, ptr %125, align 4, !tbaa !29
  store i32 1, ptr %4, align 4
  store i32 1, ptr %15, align 4
  br label %182

126:                                              ; preds = %121
  %127 = load ptr, ptr %5, align 8, !tbaa !3
  %128 = getelementptr inbounds nuw %struct.evp_cipher_ctx_st, ptr %127, i32 0, i32 3
  %129 = load i32, ptr %128, align 4, !tbaa !58
  store i32 %129, ptr %12, align 4, !tbaa !29
  %130 = load ptr, ptr %5, align 8, !tbaa !3
  %131 = getelementptr inbounds nuw %struct.evp_cipher_ctx_st, ptr %130, i32 0, i32 11
  %132 = load i64, ptr %131, align 8, !tbaa !37
  %133 = and i64 %132, 256
  %134 = icmp ne i64 %133, 0
  br i1 %134, label %135, label %141

135:                                              ; preds = %126
  %136 = load i32, ptr %12, align 4, !tbaa !29
  %137 = icmp ne i32 %136, 0
  br i1 %137, label %138, label %139

138:                                              ; preds = %135
  call void @ERR_new()
  call void @ERR_set_debug(ptr noundef @.str, i32 noundef 1100, ptr noundef @__func__.EVP_EncryptFinal_ex)
  call void (i32, i32, ptr, ...) @ERR_set_error(i32 noundef 6, i32 noundef 138, ptr noundef null)
  store i32 0, ptr %4, align 4
  store i32 1, ptr %15, align 4
  br label %182

139:                                              ; preds = %135
  %140 = load ptr, ptr %7, align 8, !tbaa !66
  store i32 0, ptr %140, align 4, !tbaa !29
  store i32 1, ptr %4, align 4
  store i32 1, ptr %15, align 4
  br label %182

141:                                              ; preds = %126
  %142 = load i32, ptr %11, align 4, !tbaa !29
  %143 = load i32, ptr %12, align 4, !tbaa !29
  %144 = sub i32 %142, %143
  store i32 %144, ptr %8, align 4, !tbaa !29
  %145 = load i32, ptr %12, align 4, !tbaa !29
  store i32 %145, ptr %10, align 4, !tbaa !29
  br label %146

146:                                              ; preds = %158, %141
  %147 = load i32, ptr %10, align 4, !tbaa !29
  %148 = load i32, ptr %11, align 4, !tbaa !29
  %149 = icmp ult i32 %147, %148
  br i1 %149, label %150, label %161

150:                                              ; preds = %146
  %151 = load i32, ptr %8, align 4, !tbaa !29
  %152 = trunc i32 %151 to i8
  %153 = load ptr, ptr %5, align 8, !tbaa !3
  %154 = getelementptr inbounds nuw %struct.evp_cipher_ctx_st, ptr %153, i32 0, i32 6
  %155 = load i32, ptr %10, align 4, !tbaa !29
  %156 = zext i32 %155 to i64
  %157 = getelementptr inbounds nuw [32 x i8], ptr %154, i64 0, i64 %156
  store i8 %152, ptr %157, align 1, !tbaa !50
  br label %158

158:                                              ; preds = %150
  %159 = load i32, ptr %10, align 4, !tbaa !29
  %160 = add i32 %159, 1
  store i32 %160, ptr %10, align 4, !tbaa !29
  br label %146, !llvm.loop !76

161:                                              ; preds = %146
  %162 = load ptr, ptr %5, align 8, !tbaa !3
  %163 = getelementptr inbounds nuw %struct.evp_cipher_ctx_st, ptr %162, i32 0, i32 0
  %164 = load ptr, ptr %163, align 8, !tbaa !8
  %165 = getelementptr inbounds nuw %struct.evp_cipher_st, ptr %164, i32 0, i32 7
  %166 = load ptr, ptr %165, align 8, !tbaa !69
  %167 = load ptr, ptr %5, align 8, !tbaa !3
  %168 = load ptr, ptr %6, align 8, !tbaa !32
  %169 = load ptr, ptr %5, align 8, !tbaa !3
  %170 = getelementptr inbounds nuw %struct.evp_cipher_ctx_st, ptr %169, i32 0, i32 6
  %171 = getelementptr inbounds [32 x i8], ptr %170, i64 0, i64 0
  %172 = load i32, ptr %11, align 4, !tbaa !29
  %173 = zext i32 %172 to i64
  %174 = call i32 %166(ptr noundef %167, ptr noundef %168, ptr noundef %171, i64 noundef %173)
  store i32 %174, ptr %9, align 4, !tbaa !29
  %175 = load i32, ptr %9, align 4, !tbaa !29
  %176 = icmp ne i32 %175, 0
  br i1 %176, label %177, label %180

177:                                              ; preds = %161
  %178 = load i32, ptr %11, align 4, !tbaa !29
  %179 = load ptr, ptr %7, align 8, !tbaa !66
  store i32 %178, ptr %179, align 4, !tbaa !29
  br label %180

180:                                              ; preds = %177, %161
  %181 = load i32, ptr %9, align 4, !tbaa !29
  store i32 %181, ptr %4, align 4
  store i32 1, ptr %15, align 4
  br label %182

182:                                              ; preds = %180, %139, %138, %124, %108, %104, %83, %78, %53, %32, %26, %20
  call void @llvm.lifetime.end.p0(i64 4, ptr %14) #9
  call void @llvm.lifetime.end.p0(i64 8, ptr %13) #9
  call void @llvm.lifetime.end.p0(i64 4, ptr %12) #9
  call void @llvm.lifetime.end.p0(i64 4, ptr %11) #9
  call void @llvm.lifetime.end.p0(i64 4, ptr %10) #9
  call void @llvm.lifetime.end.p0(i64 4, ptr %9) #9
  call void @llvm.lifetime.end.p0(i64 4, ptr %8) #9
  %183 = load i32, ptr %4, align 4
  ret i32 %183
}