; Function Attrs: nounwind uwtable
define i32 @EVP_EncryptFinal_ex(ptr noundef %0, ptr noundef %1, ptr noundef writeonly captures(address_is_null) %2) local_unnamed_addr #0 {
  %4 = alloca i64, align 8
  call void @llvm.lifetime.start.p0(i64 8, ptr nonnull %4) #10
  %.not = icmp eq ptr %2, null
  br i1 %.not, label %8, label %5

5:                                                ; preds = %3
  store i32 0, ptr %2, align 4, !tbaa !35
  %6 = getelementptr inbounds nuw i8, ptr %0, i64 16
  %7 = load i32, ptr %6, align 8, !tbaa !27
  %.not58 = icmp eq i32 %7, 0
  br i1 %.not58, label %9, label %10

8:                                                ; preds = %3
  tail call void @ERR_new() #10
  tail call void @ERR_set_debug(ptr noundef nonnull @.str, i32 noundef 1042, ptr noundef nonnull @__func__.EVP_EncryptFinal_ex) #10
  tail call void (i32, i32, ptr, ...) @ERR_set_error(i32 noundef 6, i32 noundef 786690, ptr noundef null) #10
  br label %81

9:                                                ; preds = %5
  tail call void @ERR_new() #10
  tail call void @ERR_set_debug(ptr noundef nonnull @.str, i32 noundef 1048, ptr noundef nonnull @__func__.EVP_EncryptFinal_ex) #10
  tail call void (i32, i32, ptr, ...) @ERR_set_error(i32 noundef 6, i32 noundef 148, ptr noundef null) #10
  br label %81

10:                                               ; preds = %5
  %11 = load ptr, ptr %0, align 8, !tbaa !3
  %12 = icmp eq ptr %11, null
  br i1 %12, label %13, label %14

13:                                               ; preds = %10
  tail call void @ERR_new() #10
  tail call void @ERR_set_debug(ptr noundef nonnull @.str, i32 noundef 1053, ptr noundef nonnull @__func__.EVP_EncryptFinal_ex) #10
  tail call void (i32, i32, ptr, ...) @ERR_set_error(i32 noundef 6, i32 noundef 131, ptr noundef null) #10
  br label %81

14:                                               ; preds = %10
  %15 = getelementptr inbounds nuw i8, ptr %11, i64 120
  %16 = load ptr, ptr %15, align 8, !tbaa !12
  %17 = icmp eq ptr %16, null
  br i1 %17, label %40, label %18

18:                                               ; preds = %14
  %19 = tail call i32 @EVP_CIPHER_CTX_get_block_size(ptr noundef nonnull %0) #10
  %20 = icmp slt i32 %19, 1
  br i1 %20, label %26, label %21

21:                                               ; preds = %18
  %22 = load ptr, ptr %0, align 8, !tbaa !3
  %23 = getelementptr inbounds nuw i8, ptr %22, i64 168
  %24 = load ptr, ptr %23, align 8, !tbaa !67
  %25 = icmp eq ptr %24, null
  br i1 %25, label %26, label %27

26:                                               ; preds = %21, %18
  tail call void @ERR_new() #10
  tail call void @ERR_set_debug(ptr noundef nonnull @.str, i32 noundef 1062, ptr noundef nonnull @__func__.EVP_EncryptFinal_ex) #10
  tail call void (i32, i32, ptr, ...) @ERR_set_error(i32 noundef 6, i32 noundef 188, ptr noundef null) #10
  br label %81

27:                                               ; preds = %21
  %28 = getelementptr inbounds nuw i8, ptr %0, i64 176
  %29 = load ptr, ptr %28, align 8, !tbaa !17
  %30 = icmp eq i32 %19, 1
  %31 = select i1 %30, i32 0, i32 %19
  %32 = zext nneg i32 %31 to i64
  %33 = call i32 %24(ptr noundef %29, ptr noundef %1, ptr noundef nonnull %4, i64 noundef %32) #10
  %.not59 = icmp eq i32 %33, 0
  br i1 %.not59, label %81, label %34

34:                                               ; preds = %27
  %35 = load i64, ptr %4, align 8, !tbaa !39
  %36 = icmp ugt i64 %35, 2147483647
  br i1 %36, label %37, label %38

37:                                               ; preds = %34
  call void @ERR_new() #10
  call void @ERR_set_debug(ptr noundef nonnull @.str, i32 noundef 1071, ptr noundef nonnull @__func__.EVP_EncryptFinal_ex) #10
  call void (i32, i32, ptr, ...) @ERR_set_error(i32 noundef 6, i32 noundef 188, ptr noundef null) #10
  br label %81

38:                                               ; preds = %34
  %39 = trunc nuw nsw i64 %35 to i32
  store i32 %39, ptr %2, align 4, !tbaa !35
  br label %81

40:                                               ; preds = %14
  %41 = getelementptr inbounds nuw i8, ptr %11, i64 16
  %42 = load i64, ptr %41, align 8, !tbaa !53
  %43 = and i64 %42, 1048576
  %.not60 = icmp eq i64 %43, 0
  br i1 %.not60, label %50, label %44

44:                                               ; preds = %40
  %45 = getelementptr inbounds nuw i8, ptr %11, i64 40
  %46 = load ptr, ptr %45, align 8, !tbaa !64
  %47 = tail call i32 %46(ptr noundef nonnull %0, ptr noundef %1, ptr noundef null, i64 noundef 0) #10
  %48 = icmp slt i32 %47, 0
  br i1 %48, label %81, label %49

49:                                               ; preds = %44
  store i32 %47, ptr %2, align 4, !tbaa !35
  br label %81

50:                                               ; preds = %40
  %51 = getelementptr inbounds nuw i8, ptr %11, i64 4
  %52 = load i32, ptr %51, align 4, !tbaa !54
  %53 = zext i32 %52 to i64
  %54 = icmp ult i32 %52, 33
  br i1 %54, label %56, label %55

55:                                               ; preds = %50
  tail call void @OPENSSL_die(ptr noundef nonnull @.str.1, ptr noundef nonnull @.str, i32 noundef 1092) #11
  unreachable

56:                                               ; preds = %50
  %57 = icmp eq i32 %52, 1
  br i1 %57, label %81, label %58

58:                                               ; preds = %56
  %59 = getelementptr inbounds nuw i8, ptr %0, i64 20
  %60 = load i32, ptr %59, align 4, !tbaa !57
  %61 = getelementptr inbounds nuw i8, ptr %0, i64 112
  %62 = load i64, ptr %61, align 8, !tbaa !28
  %63 = and i64 %62, 256
  %.not61 = icmp eq i64 %63, 0
  br i1 %.not61, label %66, label %64

64:                                               ; preds = %58
  %.not63 = icmp eq i32 %60, 0
  br i1 %.not63, label %81, label %65

65:                                               ; preds = %64
  tail call void @ERR_new() #10
  tail call void @ERR_set_debug(ptr noundef nonnull @.str, i32 noundef 1100, ptr noundef nonnull @__func__.EVP_EncryptFinal_ex) #10
  tail call void (i32, i32, ptr, ...) @ERR_set_error(i32 noundef 6, i32 noundef 138, ptr noundef null) #10
  br label %81

66:                                               ; preds = %58
  %67 = icmp ult i32 %60, %52
  br i1 %67, label %.lr.ph, label %._crit_edge

.lr.ph:                                           ; preds = %66
  %68 = sub nuw nsw i32 %52, %60
  %69 = trunc nuw i32 %68 to i8
  %70 = zext nneg i32 %60 to i64
  %71 = getelementptr i8, ptr %0, i64 %70
  %scevgep = getelementptr i8, ptr %71, i64 56
  %72 = xor i32 %60, -1
  %73 = add nsw i32 %52, %72
  %74 = zext i32 %73 to i64
  %75 = add nuw nsw i64 %74, 1
  tail call void @llvm.memset.p0.i64(ptr noundef nonnull align 1 dereferenceable(1) %scevgep, i8 %69, i64 %75, i1 false), !tbaa !68
  br label %._crit_edge

._crit_edge:                                      ; preds = %.lr.ph, %66
  %76 = getelementptr inbounds nuw i8, ptr %11, i64 40
  %77 = load ptr, ptr %76, align 8, !tbaa !64
  %78 = getelementptr inbounds nuw i8, ptr %0, i64 56
  %79 = tail call i32 %77(ptr noundef nonnull %0, ptr noundef %1, ptr noundef nonnull %78, i64 noundef %53) #10
  %.not62 = icmp eq i32 %79, 0
  br i1 %.not62, label %81, label %80

80:                                               ; preds = %._crit_edge
  store i32 %52, ptr %2, align 4, !tbaa !35
  br label %81

81:                                               ; preds = %64, %56, %._crit_edge, %80, %44, %27, %38, %65, %49, %37, %26, %13, %9, %8
  %.0 = phi i32 [ 0, %13 ], [ 1, %49 ], [ 0, %65 ], [ 0, %26 ], [ 0, %37 ], [ 0, %9 ], [ 0, %8 ], [ %33, %38 ], [ 0, %27 ], [ 0, %44 ], [ %79, %80 ], [ 0, %._crit_edge ], [ 1, %56 ], [ 1, %64 ]
  call void @llvm.lifetime.end.p0(i64 8, ptr nonnull %4) #10
  ret i32 %.0
}